target datalayout = "e-m:e-p270:32:32-p271:32:32-p272:64:64-i64:64-i128:128-f80:128-n8:16:32:64-S128"
target triple = "x86_64-pc-linux-gnu"

%struct.client_response = type { ptr }

@pmi_version = internal global i32 0, align 4
@pmi_subversion = internal global i32 0, align 4
@plugin_type = external constant [0 x i8], align 1
@.str.3 = private unnamed_addr constant [9 x i8] c"client.c\00", align 1
@.str.42 = private unnamed_addr constant [5 x i8] c"%-6d\00", align 1
@.str.43 = private unnamed_addr constant [41 x i8] c"%s: %s: mpi/pmi2: client_resp_send: %s%s\00", align 1
@__func__.client_resp_send = private unnamed_addr constant [17 x i8] c"client_resp_send\00", align 1
@.str.44 = private unnamed_addr constant [53 x i8] c"%s: %s: %s:%d: %s: safe_write (%zu of %d) failed: %m\00", align 1
@.str.45 = private unnamed_addr constant [56 x i8] c"%s: %s: %s:%d: %s: safe_write (%zu of %d) partial write\00", align 1
@.str.46 = private unnamed_addr constant [39 x i8] c"%s: %s: mpi/pmi2: client_resp_send: %s\00", align 1

; Function Attrs: nounwind uwtable
define dso_local i32 @is_pmi11() #0 {
  %1 = load i32, ptr @pmi_version, align 4
  %2 = icmp eq i32 %1, 1
  br i1 %2, label %3, label %6

3:                                                ; preds = %0
  %4 = load i32, ptr @pmi_subversion, align 4
  %5 = icmp eq i32 %4, 1
  br label %6

6:                                                ; preds = %3, %0
  %7 = phi i1 [ false, %0 ], [ %5, %3 ]
  %8 = zext i1 %7 to i32
  ret i32 %8
}

; Function Attrs: nounwind uwtable
define dso_local i32 @is_pmi20() #0 {
  %1 = load i32, ptr @pmi_version, align 4
  %2 = icmp eq i32 %1, 2
  br i1 %2, label %3, label %6

3:                                                ; preds = %0
  %4 = load i32, ptr @pmi_subversion, align 4
  %5 = icmp eq i32 %4, 0
  br label %6

6:                                                ; preds = %3, %0
  %7 = phi i1 [ false, %0 ], [ %5, %3 ]
  %8 = zext i1 %7 to i32
  ret i32 %8
}

; Function Attrs: nounwind uwtable
define dso_local i32 @client_resp_send(ptr noundef %0, i32 noundef %1) #0 {
  %3 = alloca i32, align 4
  %4 = alloca ptr, align 8
  %5 = alloca i32, align 4
  %6 = alloca [7 x i8], align 1
  %7 = alloca i32, align 4
  %8 = alloca i64, align 8
  %9 = alloca ptr, align 8
  %10 = alloca i32, align 4
  %11 = alloca i32, align 4
  %12 = alloca i64, align 8
  %13 = alloca ptr, align 8
  %14 = alloca i32, align 4
  store ptr %0, ptr %4, align 8
  store i32 %1, ptr %5, align 4
  call void @llvm.lifetime.start.p0(i64 7, ptr %6) #7
  call void @llvm.lifetime.start.p0(i64 4, ptr %7) #7
  %15 = load ptr, ptr %4, align 8
  %16 = getelementptr inbounds nuw %struct.client_response, ptr %15, i32 0, i32 0
  %17 = load ptr, ptr %16, align 8
  %18 = call i64 @strlen(ptr noundef %17) #8
  %19 = trunc i64 %18 to i32
  store i32 %19, ptr %7, align 4
  %20 = call i32 @is_pmi20()
  %21 = icmp ne i32 %20, 0
  br i1 %21, label %22, label %108

22:                                               ; preds = %2
  %23 = getelementptr inbounds [7 x i8], ptr %6, i64 0, i64 0
  %24 = load i32, ptr %7, align 4
  %25 = call i32 (ptr, i64, ptr, ...) @snprintf(ptr noundef %23, i64 noundef 7, ptr noundef @.str.42, i32 noundef %24) #7
  %26 = icmp sgt i32 %25, 6
  br i1 %26, label %27, label %28

27:                                               ; preds = %22
  br label %198

28:                                               ; preds = %22
  br label %29

29:                                               ; preds = %28
  br label %30

30:                                               ; preds = %29
  %31 = call i32 @slurm_get_log_level()
  %32 = icmp sge i32 %31, 6
  br i1 %32, label %33, label %38

33:                                               ; preds = %30
  %34 = getelementptr inbounds [7 x i8], ptr %6, i64 0, i64 0
  %35 = load ptr, ptr %4, align 8
  %36 = getelementptr inbounds nuw %struct.client_response, ptr %35, i32 0, i32 0
  %37 = load ptr, ptr %36, align 8
  call void (i32, ptr, ...) @slurm_log_var(i32 noundef 6, ptr noundef @.str.43, ptr noundef @plugin_type, ptr noundef @__func__.client_resp_send, ptr noundef %34, ptr noundef %37)
  br label %38

38:                                               ; preds = %33, %30
  br label %39

39:                                               ; preds = %38
  br label %40

40:                                               ; preds = %39
  br label %41

41:                                               ; preds = %40
  br label %42

42:                                               ; preds = %41
  br label %43

43:                                               ; preds = %42
  call void @llvm.lifetime.start.p0(i64 8, ptr %8) #7
  store i64 6, ptr %8, align 8
  call void @llvm.lifetime.start.p0(i64 8, ptr %9) #7
  %44 = getelementptr inbounds [7 x i8], ptr %6, i64 0, i64 0
  store ptr %44, ptr %9, align 8
  call void @llvm.lifetime.start.p0(i64 4, ptr %10) #7
  br label %45

45:                                               ; preds = %101, %64, %43
  %46 = load i64, ptr %8, align 8
  %47 = icmp ugt i64 %46, 0
  br i1 %47, label %48, label %102

48:                                               ; preds = %45
  %49 = load i32, ptr %5, align 4
  %50 = load ptr, ptr %9, align 8
  %51 = load i64, ptr %8, align 8
  %52 = call i64 @write(i32 noundef %49, ptr noundef %50, i64 noundef %51)
  %53 = trunc i64 %52 to i32
  store i32 %53, ptr %10, align 4
  %54 = load i32, ptr %10, align 4
  %55 = icmp slt i32 %54, 0
  br i1 %55, label %56, label %77

56:                                               ; preds = %48
  %57 = call ptr @__errno_location() #9
  %58 = load i32, ptr %57, align 4
  %59 = icmp eq i32 %58, 11
  br i1 %59, label %64, label %60

60:                                               ; preds = %56
  %61 = call ptr @__errno_location() #9
  %62 = load i32, ptr %61, align 4
  %63 = icmp eq i32 %62, 4
  br i1 %63, label %64, label %65

64:                                               ; preds = %60, %56
  br label %45, !llvm.loop !22

65:                                               ; preds = %60
  br label %66

66:                                               ; preds = %65
  br label %67

67:                                               ; preds = %66
  %68 = call i32 @slurm_get_log_level()
  %69 = icmp sge i32 %68, 5
  br i1 %69, label %70, label %72

70:                                               ; preds = %67
  %71 = load i64, ptr %8, align 8
  call void (i32, ptr, ...) @slurm_log_var(i32 noundef 5, ptr noundef @.str.44, ptr noundef @plugin_type, ptr noundef @__func__.client_resp_send, ptr noundef @.str.3, i32 noundef 542, ptr noundef @__func__.client_resp_send, i64 noundef %71, i32 noundef 6)
  br label %72

72:                                               ; preds = %70, %67
  br label %73

73:                                               ; preds = %72
  br label %74

74:                                               ; preds = %73
  br label %75

75:                                               ; preds = %74
  br label %76

76:                                               ; preds = %75
  store i32 2, ptr %11, align 4
  br label %103

77:                                               ; preds = %48
  %78 = load i32, ptr %10, align 4
  %79 = load ptr, ptr %9, align 8
  %80 = sext i32 %78 to i64
  %81 = getelementptr inbounds i8, ptr %79, i64 %80
  store ptr %81, ptr %9, align 8
  %82 = load i32, ptr %10, align 4
  %83 = sext i32 %82 to i64
  %84 = load i64, ptr %8, align 8
  %85 = sub i64 %84, %83
  store i64 %85, ptr %8, align 8
  %86 = load i64, ptr %8, align 8
  %87 = icmp ugt i64 %86, 0
  br i1 %87, label %88, label %100

88:                                               ; preds = %77
  br label %89

89:                                               ; preds = %88
  br label %90

90:                                               ; preds = %89
  %91 = call i32 @slurm_get_log_level()
  %92 = icmp sge i32 %91, 7
  br i1 %92, label %93, label %95

93:                                               ; preds = %90
  %94 = load i64, ptr %8, align 8
  call void (i32, ptr, ...) @slurm_log_var(i32 noundef 7, ptr noundef @.str.45, ptr noundef @plugin_type, ptr noundef @__func__.client_resp_send, ptr noundef @.str.3, i32 noundef 542, ptr noundef @__func__.client_resp_send, i64 noundef %94, i32 noundef 6)
  br label %95

95:                                               ; preds = %93, %90
  br label %96

96:                                               ; preds = %95
  br label %97

97:                                               ; preds = %96
  br label %98

98:                                               ; preds = %97
  br label %99

99:                                               ; preds = %98
  br label %100

100:                                              ; preds = %99, %77
  br label %101

101:                                              ; preds = %100
  br label %45, !llvm.loop !22

102:                                              ; preds = %45
  store i32 0, ptr %11, align 4
  br label %103

103:                                              ; preds = %76, %102
  call void @llvm.lifetime.end.p0(i64 4, ptr %10) #7
  call void @llvm.lifetime.end.p0(i64 8, ptr %9) #7
  call void @llvm.lifetime.end.p0(i64 8, ptr %8) #7
  %104 = load i32, ptr %11, align 4
  switch i32 %104, label %199 [
    i32 0, label %105
    i32 2, label %198
  ]

105:                                              ; preds = %103
  br label %106

106:                                              ; preds = %105
  br label %107

107:                                              ; preds = %106
  br label %126

108:                                              ; preds = %2
  %109 = call i32 @is_pmi11()
  %110 = icmp ne i32 %109, 0
  br i1 %110, label %111, label %125

111:                                              ; preds = %108
  br label %112

112:                                              ; preds = %111
  br label %113

113:                                              ; preds = %112
  %114 = call i32 @slurm_get_log_level()
  %115 = icmp sge i32 %114, 6
  br i1 %115, label %116, label %120

116:                                              ; preds = %113
  %117 = load ptr, ptr %4, align 8
  %118 = getelementptr inbounds nuw %struct.client_response, ptr %117, i32 0, i32 0
  %119 = load ptr, ptr %118, align 8
  call void (i32, ptr, ...) @slurm_log_var(i32 noundef 6, ptr noundef @.str.46, ptr noundef @plugin_type, ptr noundef @__func__.client_resp_send, ptr noundef %119)
  br label %120

120:                                              ; preds = %116, %113
  br label %121

121:                                              ; preds = %120
  br label %122

122:                                              ; preds = %121
  br label %123

123:                                              ; preds = %122
  br label %124

124:                                              ; preds = %123
  br label %125

125:                                              ; preds = %124, %108
  br label %126

126:                                              ; preds = %125, %107
  br label %127

127:                                              ; preds = %126
  call void @llvm.lifetime.start.p0(i64 8, ptr %12) #7
  %128 = load i32, ptr %7, align 4
  %129 = sext i32 %128 to i64
  store i64 %129, ptr %12, align 8
  call void @llvm.lifetime.start.p0(i64 8, ptr %13) #7
  %130 = load ptr, ptr %4, align 8
  %131 = getelementptr inbounds nuw %struct.client_response, ptr %130, i32 0, i32 0
  %132 = load ptr, ptr %131, align 8
  store ptr %132, ptr %13, align 8
  call void @llvm.lifetime.start.p0(i64 4, ptr %14) #7
  br label %133

133:                                              ; preds = %191, %152, %127
  %134 = load i64, ptr %12, align 8
  %135 = icmp ugt i64 %134, 0
  br i1 %135, label %136, label %192

136:                                              ; preds = %133
  %137 = load i32, ptr %5, align 4
  %138 = load ptr, ptr %13, align 8
  %139 = load i64, ptr %12, align 8
  %140 = call i64 @write(i32 noundef %137, ptr noundef %138, i64 noundef %139)
  %141 = trunc i64 %140 to i32
  store i32 %141, ptr %14, align 4
  %142 = load i32, ptr %14, align 4
  %143 = icmp slt i32 %142, 0
  br i1 %143, label %144, label %166

144:                                              ; preds = %136
  %145 = call ptr @__errno_location() #9
  %146 = load i32, ptr %145, align 4
  %147 = icmp eq i32 %146, 11
  br i1 %147, label %152, label %148

148:                                              ; preds = %144
  %149 = call ptr @__errno_location() #9
  %150 = load i32, ptr %149, align 4
  %151 = icmp eq i32 %150, 4
  br i1 %151, label %152, label %153

152:                                              ; preds = %148, %144
  br label %133, !llvm.loop !23

153:                                              ; preds = %148
  br label %154

154:                                              ; preds = %153
  br label %155

155:                                              ; preds = %154
  %156 = call i32 @slurm_get_log_level()
  %157 = icmp sge i32 %156, 5
  br i1 %157, label %158, label %161

158:                                              ; preds = %155
  %159 = load i64, ptr %12, align 8
  %160 = load i32, ptr %7, align 4
  call void (i32, ptr, ...) @slurm_log_var(i32 noundef 5, ptr noundef @.str.44, ptr noundef @plugin_type, ptr noundef @__func__.client_resp_send, ptr noundef @.str.3, i32 noundef 546, ptr noundef @__func__.client_resp_send, i64 noundef %159, i32 noundef %160)
  br label %161

161:                                              ; preds = %158, %155
  br label %162

162:                                              ; preds = %161
  br label %163

163:                                              ; preds = %162
  br label %164

164:                                              ; preds = %163
  br label %165

165:                                              ; preds = %164
  store i32 2, ptr %11, align 4
  br label %193

166:                                              ; preds = %136
  %167 = load i32, ptr %14, align 4
  %168 = load ptr, ptr %13, align 8
  %169 = sext i32 %167 to i64
  %170 = getelementptr inbounds i8, ptr %168, i64 %169
  store ptr %170, ptr %13, align 8
  %171 = load i32, ptr %14, align 4
  %172 = sext i32 %171 to i64
  %173 = load i64, ptr %12, align 8
  %174 = sub i64 %173, %172
  store i64 %174, ptr %12, align 8
  %175 = load i64, ptr %12, align 8
  %176 = icmp ugt i64 %175, 0
  br i1 %176, label %177, label %190

177:                                              ; preds = %166
  br label %178

178:                                              ; preds = %177
  br label %179

179:                                              ; preds = %178
  %180 = call i32 @slurm_get_log_level()
  %181 = icmp sge i32 %180, 7
  br i1 %181, label %182, label %185

182:                                              ; preds = %179
  %183 = load i64, ptr %12, align 8
  %184 = load i32, ptr %7, align 4
  call void (i32, ptr, ...) @slurm_log_var(i32 noundef 7, ptr noundef @.str.45, ptr noundef @plugin_type, ptr noundef @__func__.client_resp_send, ptr noundef @.str.3, i32 noundef 546, ptr noundef @__func__.client_resp_send, i64 noundef %183, i32 noundef %184)
  br label %185

185:                                              ; preds = %182, %179
  br label %186

186:                                              ; preds = %185
  br label %187

187:                                              ; preds = %186
  br label %188

188:                                              ; preds = %187
  br label %189

189:                                              ; preds = %188
  br label %190

190:                                              ; preds = %189, %166
  br label %191

191:                                              ; preds = %190
  br label %133, !llvm.loop !23

192:                                              ; preds = %133
  store i32 0, ptr %11, align 4
  br label %193

193:                                              ; preds = %165, %192
  call void @llvm.lifetime.end.p0(i64 4, ptr %14) #7
  call void @llvm.lifetime.end.p0(i64 8, ptr %13) #7
  call void @llvm.lifetime.end.p0(i64 8, ptr %12) #7
  %194 = load i32, ptr %11, align 4
  switch i32 %194, label %199 [
    i32 0, label %195
    i32 2, label %198
  ]

195:                                              ; preds = %193
  br label %196

196:                                              ; preds = %195
  br label %197

197:                                              ; preds = %196
  store i32 0, ptr %3, align 4
  store i32 1, ptr %11, align 4
  br label %199

198:                                              ; preds = %193, %103, %27
  store i32 -1, ptr %3, align 4
  store i32 1, ptr %11, align 4
  br label %199

199:                                              ; preds = %198, %197, %193, %103
  call void @llvm.lifetime.end.p0(i64 4, ptr %7) #7
  call void @llvm.lifetime.end.p0(i64 7, ptr %6) #7
  %200 = load i32, ptr %3, align 4
  ret i32 %200
}